target datalayout = "e-m:e-p270:32:32-p271:32:32-p272:64:64-i64:64-i128:128-f80:128-n8:16:32:64-S128"
target triple = "x86_64-pc-linux-gnu"

@.str.84 = private unnamed_addr constant [5 x i8] c"lapb\00", align 1
@proto_fr = internal global i32 0, align 4
@fr_handle = internal global ptr null, align 8
@.str.96 = private unnamed_addr constant [10 x i8] c"gre.proto\00", align 1
@.str.97 = private unnamed_addr constant [11 x i8] c"wtap_encap\00", align 1
@.str.98 = private unnamed_addr constant [14 x i8] c"juniper.proto\00", align 1
@.str.99 = private unnamed_addr constant [26 x i8] c"sflow_245.header_protocol\00", align 1
@.str.100 = private unnamed_addr constant [14 x i8] c"atm.aal5.type\00", align 1
@.str.101 = private unnamed_addr constant [13 x i8] c"l2tp.pw_type\00", align 1
@.str.102 = private unnamed_addr constant [11 x i8] c"sll.hatype\00", align 1
@.str.103 = private unnamed_addr constant [12 x i8] c"eth_withfcs\00", align 1
@eth_withfcs_handle = internal global ptr null, align 8
@.str.104 = private unnamed_addr constant [8 x i8] c"gprs_ns\00", align 1
@gprs_ns_handle = internal global ptr null, align 8
@lapb_handle = internal global ptr null, align 8
@.str.105 = private unnamed_addr constant [5 x i8] c"data\00", align 1
@data_handle = internal global ptr null, align 8
@.str.106 = private unnamed_addr constant [15 x i8] c"chdlc.protocol\00", align 1
@chdlc_subdissector_table = internal global ptr null, align 8
@.str.107 = private unnamed_addr constant [11 x i8] c"osinl.incl\00", align 1
@osinl_incl_subdissector_table = internal global ptr null, align 8
@.str.108 = private unnamed_addr constant [10 x i8] c"ethertype\00", align 1
@ethertype_subdissector_table = internal global ptr null, align 8
@.str.109 = private unnamed_addr constant [6 x i8] c"chdlc\00", align 1
@chdlc_cap_handle = internal global ptr null, align 8
@.str.110 = private unnamed_addr constant [4 x i8] c"eth\00", align 1
@eth_cap_handle = internal global ptr null, align 8

; Function Attrs: null_pointer_is_valid sspstrong uwtable
define hidden void @proto_reg_handoff_fr() #0 {
  %1 = alloca ptr, align 8
  %2 = alloca ptr, align 8
  call void @llvm.lifetime.start.p0(i64 8, ptr %1) #4
  call void @llvm.lifetime.start.p0(i64 8, ptr %2) #4
  %3 = load ptr, ptr @fr_handle, align 8
  call void @dissector_add_uint(ptr noundef @.str.96, i32 noundef 25945, ptr noundef %3)
  %4 = load ptr, ptr @fr_handle, align 8
  call void @dissector_add_uint(ptr noundef @.str.97, i32 noundef 26, ptr noundef %4)
  %5 = load ptr, ptr @fr_handle, align 8
  call void @dissector_add_uint(ptr noundef @.str.98, i32 noundef 207, ptr noundef %5)
  %6 = load ptr, ptr @fr_handle, align 8
  call void @dissector_add_uint(ptr noundef @.str.99, i32 noundef 5, ptr noundef %6)
  %7 = load ptr, ptr @fr_handle, align 8
  call void @dissector_add_uint(ptr noundef @.str.100, i32 noundef 5, ptr noundef %7)
  %8 = load ptr, ptr @fr_handle, align 8
  call void @dissector_add_uint(ptr noundef @.str.101, i32 noundef 1, ptr noundef %8)
  %9 = load ptr, ptr @fr_handle, align 8
  call void @dissector_add_uint(ptr noundef @.str.102, i32 noundef 770, ptr noundef %9)
  %10 = load i32, ptr @proto_fr, align 4
  %11 = call ptr @create_dissector_handle(ptr noundef @dissect_fr_phdr, i32 noundef %10)
  store ptr %11, ptr %1, align 8
  %12 = load ptr, ptr %1, align 8
  call void @dissector_add_uint(ptr noundef @.str.97, i32 noundef 27, ptr noundef %12)
  %13 = load i32, ptr @proto_fr, align 4
  %14 = call ptr @create_capture_dissector_handle(ptr noundef @capture_fr, i32 noundef %13)
  store ptr %14, ptr %2, align 8
  %15 = load ptr, ptr %2, align 8
  call void @capture_dissector_add_uint(ptr noundef @.str.97, i32 noundef 26, ptr noundef %15)
  %16 = load ptr, ptr %2, align 8
  call void @capture_dissector_add_uint(ptr noundef @.str.97, i32 noundef 27, ptr noundef %16)
  %17 = load i32, ptr @proto_fr, align 4
  %18 = call ptr @find_dissector_add_dependency(ptr noundef @.str.103, i32 noundef %17)
  store ptr %18, ptr @eth_withfcs_handle, align 8
  %19 = load i32, ptr @proto_fr, align 4
  %20 = call ptr @find_dissector_add_dependency(ptr noundef @.str.104, i32 noundef %19)
  store ptr %20, ptr @gprs_ns_handle, align 8
  %21 = load i32, ptr @proto_fr, align 4
  %22 = call ptr @find_dissector_add_dependency(ptr noundef @.str.84, i32 noundef %21)
  store ptr %22, ptr @lapb_handle, align 8
  %23 = load i32, ptr @proto_fr, align 4
  %24 = call ptr @find_dissector_add_dependency(ptr noundef @.str.105, i32 noundef %23)
  store ptr %24, ptr @data_handle, align 8
  %25 = call ptr @find_dissector_table(ptr noundef @.str.106)
  store ptr %25, ptr @chdlc_subdissector_table, align 8
  %26 = call ptr @find_dissector_table(ptr noundef @.str.107)
  store ptr %26, ptr @osinl_incl_subdissector_table, align 8
  %27 = call ptr @find_dissector_table(ptr noundef @.str.108)
  store ptr %27, ptr @ethertype_subdissector_table, align 8
  %28 = call ptr @find_capture_dissector(ptr noundef @.str.109)
  store ptr %28, ptr @chdlc_cap_handle, align 8
  %29 = call ptr @find_capture_dissector(ptr noundef @.str.110)
  store ptr %29, ptr @eth_cap_handle, align 8
  call void @llvm.lifetime.end.p0(i64 8, ptr %2) #4
  call void @llvm.lifetime.end.p0(i64 8, ptr %1) #4
  ret void
}