; Function Attrs: null_pointer_is_valid sspstrong uwtable
define hidden void @proto_reg_handoff_fr() local_unnamed_addr #0 {
  %1 = load ptr, ptr @fr_handle, align 8
  tail call void @dissector_add_uint(ptr noundef nonnull @.str.96, i32 noundef 25945, ptr noundef %1)
  %2 = load ptr, ptr @fr_handle, align 8
  tail call void @dissector_add_uint(ptr noundef nonnull @.str.97, i32 noundef 26, ptr noundef %2)
  %3 = load ptr, ptr @fr_handle, align 8
  tail call void @dissector_add_uint(ptr noundef nonnull @.str.98, i32 noundef 207, ptr noundef %3)
  %4 = load ptr, ptr @fr_handle, align 8
  tail call void @dissector_add_uint(ptr noundef nonnull @.str.99, i32 noundef 5, ptr noundef %4)
  %5 = load ptr, ptr @fr_handle, align 8
  tail call void @dissector_add_uint(ptr noundef nonnull @.str.100, i32 noundef 5, ptr noundef %5)
  %6 = load ptr, ptr @fr_handle, align 8
  tail call void @dissector_add_uint(ptr noundef nonnull @.str.101, i32 noundef 1, ptr noundef %6)
  %7 = load ptr, ptr @fr_handle, align 8
  tail call void @dissector_add_uint(ptr noundef nonnull @.str.102, i32 noundef 770, ptr noundef %7)
  %8 = load i32, ptr @proto_fr, align 4
  %9 = tail call ptr @create_dissector_handle(ptr noundef nonnull @dissect_fr_phdr, i32 noundef %8)
  tail call void @dissector_add_uint(ptr noundef nonnull @.str.97, i32 noundef 27, ptr noundef %9)
  %10 = load i32, ptr @proto_fr, align 4
  %11 = tail call ptr @create_capture_dissector_handle(ptr noundef nonnull @capture_fr, i32 noundef %10)
  tail call void @capture_dissector_add_uint(ptr noundef nonnull @.str.97, i32 noundef 26, ptr noundef %11)
  tail call void @capture_dissector_add_uint(ptr noundef nonnull @.str.97, i32 noundef 27, ptr noundef %11)
  %12 = load i32, ptr @proto_fr, align 4
  %13 = tail call ptr @find_dissector_add_dependency(ptr noundef nonnull @.str.103, i32 noundef %12)
  store ptr %13, ptr @eth_withfcs_handle, align 8
  %14 = load i32, ptr @proto_fr, align 4
  %15 = tail call ptr @find_dissector_add_dependency(ptr noundef nonnull @.str.104, i32 noundef %14)
  store ptr %15, ptr @gprs_ns_handle, align 8
  %16 = load i32, ptr @proto_fr, align 4
  %17 = tail call ptr @find_dissector_add_dependency(ptr noundef nonnull @.str.84, i32 noundef %16)
  store ptr %17, ptr @lapb_handle, align 8
  %18 = load i32, ptr @proto_fr, align 4
  %19 = tail call ptr @find_dissector_add_dependency(ptr noundef nonnull @.str.105, i32 noundef %18)
  store ptr %19, ptr @data_handle, align 8
  %20 = tail call ptr @find_dissector_table(ptr noundef nonnull @.str.106)
  store ptr %20, ptr @chdlc_subdissector_table, align 8
  %21 = tail call ptr @find_dissector_table(ptr noundef nonnull @.str.107)
  store ptr %21, ptr @osinl_incl_subdissector_table, align 8
  %22 = tail call ptr @find_dissector_table(ptr noundef nonnull @.str.108)
  store ptr %22, ptr @ethertype_subdissector_table, align 8
  %23 = tail call ptr @find_capture_dissector(ptr noundef nonnull @.str.109)
  store ptr %23, ptr @chdlc_cap_handle, align 8
  %24 = tail call ptr @find_capture_dissector(ptr noundef nonnull @.str.110)
  store ptr %24, ptr @eth_cap_handle, align 8
  ret void
}